(dp0
Vengine
p1
S'pdflatex'
p2
sVpackages
p3
c__builtin__
set
p4
((lp5
Vinputenc
p6
atp7
Rp8
sVfiles_with_guttermarks
p9
g4
((lp10
V/Users/shan_kuan/Documents/deep_learning_miniproject/cs-e4000-template-1/cs-seminar.tex
p11
aS'cs-seminar.tex'
p12
atp13
Rp14
sVsynctex
p15
I01
s.