(dp0
Vengine
p1
S'pdflatex'
p2
sVpackages
p3
c__builtin__
set
p4
((lp5
Vamsmath
p6
aVinputenc
p7
aValgorithm
p8
aValgpseudocode
p9
aVamssymb
p10
atp11
Rp12
sVfiles_with_guttermarks
p13
g4
((lp14
V/Users/shan_kuan/Documents/deep_learning_miniproject/cs-e4000-template/./cs-seminar.bib
p15
aV/Users/shan_kuan/Documents/deep_learning_miniproject/cs-e4000-template/cs-seminar.tex
p16
aV/Users/shan_kuan/Documents/github_upload/q_learning/deep_learning_miniproject/cs-e4000-template/./cs-seminar.tex
p17
aS'cs-seminar.tex'
p18
aV/Users/shan_kuan/Documents/deep_learning_miniproject/cs-e4000-template/./cs-seminar.tex
p19
aV/Users/shan_kuan/Documents/github_upload/q_learning/deep_learning_miniproject/cs-e4000-template/cs-seminar.tex
p20
atp21
Rp22
sVsynctex
p23
I01
s.