(dp0
Vengine
p1
S'pdflatex'
p2
sVpackages
p3
c__builtin__
set
p4
((lp5
Vamsmath
p6
aVinputenc
p7
aVamssymb
p8
atp9
Rp10
sVfiles_with_guttermarks
p11
g4
((lp12
V/Users/shan_kuan/Documents/deep_learning_miniproject/cs-e4000-template/./cs-seminar.bib
p13
aV/Users/shan_kuan/Documents/deep_learning_miniproject/cs-e4000-template/cs-seminar.tex
p14
aV/Users/shan_kuan/Documents/deep_learning_miniproject/cs-e4000-template/./cs-seminar.tex
p15
aS'cs-seminar.tex'
p16
atp17
Rp18
sVsynctex
p19
I01
s.